; Function Attrs: nounwind uwtable
define dso_local void @repo_common_pathv(ptr noundef readonly captures(none) %0, ptr noundef %1, ptr noundef %2, ptr noundef %3) local_unnamed_addr #3 {
  %5 = getelementptr inbounds nuw i8, ptr %0, i64 8
  %6 = load ptr, ptr %5, align 8, !tbaa !43
  %7 = tail call i64 @strlen(ptr noundef nonnull dereferenceable(1) %6) #30
  tail call void @strbuf_add(ptr noundef %1, ptr noundef nonnull %6, i64 noundef %7) #29
  %8 = getelementptr inbounds nuw i8, ptr %1, i64 8
  %9 = load i64, ptr %8, align 8, !tbaa !8
  %.not = icmp eq i64 %9, 0
  br i1 %.not, label %24, label %10

10:                                               ; preds = %4
  %11 = getelementptr inbounds nuw i8, ptr %1, i64 16
  %12 = load ptr, ptr %11, align 8, !tbaa !13
  %13 = getelementptr i8, ptr %12, i64 %9
  %14 = getelementptr i8, ptr %13, i64 -1
  %15 = load i8, ptr %14, align 1, !tbaa !14
  %.not11 = icmp eq i8 %15, 47
  br i1 %.not11, label %24, label %16

16:                                               ; preds = %10
  %17 = load i64, ptr %1, align 8, !tbaa !15
  %.not.i.i = icmp eq i64 %17, 0
  %.neg.i = add i64 %9, 1
  %.not.i = icmp eq i64 %17, %.neg.i
  %or.cond = or i1 %.not.i.i, %.not.i
  br i1 %or.cond, label %strbuf_avail.exit.thread.i, label %strbuf_addch.exit

strbuf_avail.exit.thread.i:                       ; preds = %16
  tail call void @strbuf_grow(ptr noundef nonnull %1, i64 noundef 1) #29
  %.pre.i = load i64, ptr %8, align 8, !tbaa !8
  %.pre7.i = add i64 %.pre.i, 1
  %.pre = load ptr, ptr %11, align 8, !tbaa !13
  br label %strbuf_addch.exit

strbuf_addch.exit:                                ; preds = %16, %strbuf_avail.exit.thread.i
  %18 = phi ptr [ %.pre, %strbuf_avail.exit.thread.i ], [ %12, %16 ]
  %.pre-phi.i = phi i64 [ %.pre7.i, %strbuf_avail.exit.thread.i ], [ %.neg.i, %16 ]
  %19 = phi i64 [ %.pre.i, %strbuf_avail.exit.thread.i ], [ %9, %16 ]
  store i64 %.pre-phi.i, ptr %8, align 8, !tbaa !8
  %20 = getelementptr inbounds nuw i8, ptr %18, i64 %19
  store i8 47, ptr %20, align 1, !tbaa !14
  %21 = load ptr, ptr %11, align 8, !tbaa !13
  %22 = load i64, ptr %8, align 8, !tbaa !8
  %23 = getelementptr inbounds nuw i8, ptr %21, i64 %22
  store i8 0, ptr %23, align 1, !tbaa !14
  br label %24

24:                                               ; preds = %strbuf_addch.exit, %10, %4
  tail call void @strbuf_vaddf(ptr noundef nonnull %1, ptr noundef %2, ptr noundef %3) #29
  %25 = getelementptr inbounds nuw i8, ptr %1, i64 16
  %26 = load ptr, ptr %25, align 8, !tbaa !13
  %scevgep.i.i = getelementptr i8, ptr %26, i64 2
  br label %27

27:                                               ; preds = %28, %24
  %.07.i.i.i = phi ptr [ %26, %24 ], [ %30, %28 ]
  %.06.i.idx.i.i = phi i64 [ 0, %24 ], [ %.06.i.add.i.i, %28 ]
  %exitcond.i.i = icmp eq i64 %.06.i.idx.i.i, 2
  br i1 %exitcond.i.i, label %skip_prefix.exit.i.i, label %28

28:                                               ; preds = %27
  %.06.i.ptr.i.i = getelementptr inbounds nuw i8, ptr @.str.11, i64 %.06.i.idx.i.i
  %29 = load i8, ptr %.06.i.ptr.i.i, align 1, !tbaa !14
  %30 = getelementptr inbounds nuw i8, ptr %.07.i.i.i, i64 1
  %31 = load i8, ptr %.07.i.i.i, align 1, !tbaa !14
  %.06.i.add.i.i = add nuw nsw i64 %.06.i.idx.i.i, 1
  %32 = icmp eq i8 %31, %29
  br i1 %32, label %27, label %strbuf_cleanup_path.exit, !llvm.loop !66

skip_prefix.exit.i.i:                             ; preds = %27, %skip_prefix.exit.i.i
  %.1.i.i = phi ptr [ %35, %skip_prefix.exit.i.i ], [ %scevgep.i.i, %27 ]
  %33 = load i8, ptr %.1.i.i, align 1, !tbaa !14
  %34 = icmp eq i8 %33, 47
  %35 = getelementptr inbounds nuw i8, ptr %.1.i.i, i64 1
  br i1 %34, label %skip_prefix.exit.i.i, label %cleanup_path.exit.i, !llvm.loop !67

cleanup_path.exit.i:                              ; preds = %skip_prefix.exit.i.i
  %36 = icmp ugt ptr %.1.i.i, %26
  br i1 %36, label %37, label %strbuf_cleanup_path.exit

37:                                               ; preds = %cleanup_path.exit.i
  %38 = ptrtoint ptr %.1.i.i to i64
  %39 = ptrtoint ptr %26 to i64
  %40 = sub i64 %38, %39
  tail call void @strbuf_remove(ptr noundef nonnull %1, i64 noundef 0, i64 noundef %40) #29
  br label %strbuf_cleanup_path.exit

strbuf_cleanup_path.exit:                         ; preds = %28, %cleanup_path.exit.i, %37
  ret void
}